; Function Attrs: mustprogress uwtable
define hidden void @_ZN4perf10Regression4InitERKNSt7__cxx1112basic_stringIcSt11char_traitsIcESaIcEEES8_(ptr noundef nonnull align 8 dereferenceable(32) %0, ptr noundef nonnull align 8 dereferenceable(32) %1) local_unnamed_addr #5 align 2 personality ptr @__gxx_personality_v0 {
  %3 = load atomic i8, ptr @_ZGVZN4perf10Regression8instanceEvE6single acquire, align 8
  %4 = icmp eq i8 %3, 0
  br i1 %4, label %5, label %_ZN4perf10Regression8instanceEv.exit, !prof !18

5:                                                ; preds = %2
  %6 = tail call i32 @__cxa_guard_acquire(ptr nonnull @_ZGVZN4perf10Regression8instanceEvE6single) #39
  %.not.i = icmp eq i32 %6, 0
  br i1 %.not.i, label %_ZN4perf10Regression8instanceEv.exit, label %7

7:                                                ; preds = %5
  invoke void @_ZN4perf10RegressionC2Ev(ptr noundef nonnull align 8 dereferenceable(288) @_ZZN4perf10Regression8instanceEvE6single)
          to label %8 unwind label %10

8:                                                ; preds = %7
  %9 = tail call i32 @__cxa_atexit(ptr nonnull @_ZN4perf10RegressionD2Ev, ptr nonnull @_ZZN4perf10Regression8instanceEvE6single, ptr nonnull @__dso_handle) #39
  tail call void @__cxa_guard_release(ptr nonnull @_ZGVZN4perf10Regression8instanceEvE6single) #39
  br label %_ZN4perf10Regression8instanceEv.exit

10:                                               ; preds = %7
  %11 = landingpad { ptr, i32 }
          cleanup
  tail call void @__cxa_guard_abort(ptr nonnull @_ZGVZN4perf10Regression8instanceEvE6single) #39
  resume { ptr, i32 } %11

_ZN4perf10Regression8instanceEv.exit:             ; preds = %2, %5, %8
  tail call void @_ZN4perf10Regression4initERKNSt7__cxx1112basic_stringIcSt11char_traitsIcESaIcEEES8_(ptr noundef nonnull align 8 dereferenceable(288) @_ZZN4perf10Regression8instanceEvE6single, ptr noundef nonnull align 8 dereferenceable(32) %0, ptr noundef nonnull align 8 dereferenceable(32) %1)
  ret void
}